; Function Attrs: mustprogress nounwind uwtable
define internal void @_ZN6hermes2vm12_GLOBAL__N_127ContiguousVAStorageProviderD2Ev(ptr noundef nonnull align 8 dereferenceable(72) %this) unnamed_addr #3 align 2 {
entry:
  %start_ = getelementptr inbounds i8, ptr %this, i64 40
  %0 = load ptr, ptr %start_, align 8
  %size_ = getelementptr inbounds i8, ptr %this, i64 32
  %1 = load i64, ptr %size_, align 8
  tail call void @_ZN6hermes8oscompat18vm_release_alignedEPvm(ptr noundef %0, i64 noundef %1) #18
  %freelist_ = getelementptr inbounds i8, ptr %this, i64 56
  %2 = load ptr, ptr %freelist_, align 8
  %add.ptr.i.i.i.i = getelementptr inbounds i8, ptr %this, i64 72
  %cmp.i.i.i = icmp eq ptr %2, %add.ptr.i.i.i.i
  br i1 %cmp.i.i.i, label %_ZN4llvh11SmallVectorIPvLj0EED2Ev.exit, label %if.then.i.i

if.then.i.i:                                      ; preds = %entry
  tail call void @free(ptr noundef %2) #18
  br label %_ZN4llvh11SmallVectorIPvLj0EED2Ev.exit

_ZN4llvh11SmallVectorIPvLj0EED2Ev.exit:           ; preds = %entry, %if.then.i.i
  store ptr getelementptr inbounds ({ [6 x ptr] }, ptr @_ZTVN6hermes2vm15StorageProviderE, i64 0, i32 0, i64 2), ptr %this, align 8
  ret void
}